target datalayout = "e-m:e-p270:32:32-p271:32:32-p272:64:64-i64:64-i128:128-f80:128-n8:16:32:64-S128"
target triple = "x86_64-pc-linux-gnu"

%struct.H5R_ref_priv_t = type { %union.anon, i64, i32, i8, i8, i8 }
%union.anon = type { %struct.H5R_ref_priv_reg_t }
%struct.H5R_ref_priv_reg_t = type { %struct.H5R_ref_priv_obj_t, ptr }
%struct.H5R_ref_priv_obj_t = type { %struct.H5O_token_t, ptr }
%struct.H5O_token_t = type { [16 x i8] }
%struct.H5R_ref_priv_attr_t = type { %struct.H5R_ref_priv_obj_t, ptr }

@H5R_init_g = global i8 0, align 1
@H5_libterm_g = external global i8, align 1
@.str = private unnamed_addr constant [100 x i8] c"generated/home/dtcxzyw/WorkSpace/Projects/compilers/llvm-opt-benchmark/bench/hdf5/hdf5/src/H5Rint.c\00", align 1
@H5E_REFERENCE_g = external global i64, align 8
@H5E_CANTSET_g = external global i64, align 8
@.str.1 = private unnamed_addr constant [27 x i8] c"unable to set object token\00", align 1
@H5E_CANTENCODE_g = external global i64, align 8
@.str.2 = private unnamed_addr constant [34 x i8] c"unable to determine encoding size\00", align 1
@H5E_CANTCOPY_g = external global i64, align 8
@__func__.H5R__create_attr = private unnamed_addr constant [17 x i8] c"H5R__create_attr\00", align 1
@H5E_ARGS_g = external global i64, align 8
@.str.4 = private unnamed_addr constant [34 x i8] c"attribute name too long (%d > %d)\00", align 1
@.str.5 = private unnamed_addr constant [27 x i8] c"Cannot copy attribute name\00", align 1

; Function Attrs: nounwind uwtable
define i32 @H5R__set_obj_token(ptr noundef %0, ptr noundef %1, i64 noundef %2) #0 {
  %4 = alloca ptr, align 8
  %5 = alloca ptr, align 8
  %6 = alloca i64, align 8
  %7 = alloca i32, align 4
  store ptr %0, ptr %4, align 8, !tbaa !14
  store ptr %1, ptr %5, align 8, !tbaa !9
  store i64 %2, ptr %6, align 8, !tbaa !12
  call void @llvm.lifetime.start.p0(i64 4, ptr %7) #9
  store i32 0, ptr %7, align 4, !tbaa !16
  %8 = load i8, ptr @H5R_init_g, align 1, !tbaa !3, !range !7, !noundef !8
  %9 = trunc i8 %8 to i1
  br i1 %9, label %14, label %10

10:                                               ; preds = %3
  %11 = load i8, ptr @H5_libterm_g, align 1, !tbaa !3, !range !7, !noundef !8
  %12 = trunc i8 %11 to i1
  %13 = xor i1 %12, true
  br label %14

14:                                               ; preds = %10, %3
  %15 = phi i1 [ true, %3 ], [ %13, %10 ]
  %16 = xor i1 %15, true
  %17 = xor i1 %16, true
  %18 = zext i1 %17 to i32
  %19 = sext i32 %18 to i64
  %20 = call i64 @llvm.expect.i64(i64 %19, i64 1)
  %21 = icmp ne i64 %20, 0
  br i1 %21, label %22, label %32

22:                                               ; preds = %14
  %23 = load ptr, ptr %4, align 8, !tbaa !14
  %24 = getelementptr inbounds nuw %struct.H5R_ref_priv_t, ptr %23, i32 0, i32 0
  %25 = getelementptr inbounds nuw %struct.H5R_ref_priv_obj_t, ptr %24, i32 0, i32 0
  %26 = load ptr, ptr %5, align 8, !tbaa !9
  %27 = load i64, ptr %6, align 8, !tbaa !12
  call void @llvm.memcpy.p0.p0.i64(ptr align 8 %25, ptr align 1 %26, i64 %27, i1 false)
  %28 = load i64, ptr %6, align 8, !tbaa !12
  %29 = trunc i64 %28 to i8
  %30 = load ptr, ptr %4, align 8, !tbaa !14
  %31 = getelementptr inbounds nuw %struct.H5R_ref_priv_t, ptr %30, i32 0, i32 4
  store i8 %29, ptr %31, align 1, !tbaa !23
  br label %32

32:                                               ; preds = %22, %14
  %33 = load i32, ptr %7, align 4, !tbaa !16
  call void @llvm.lifetime.end.p0(i64 4, ptr %7) #9
  ret i32 %33
}

; Function Attrs: nounwind uwtable
define i32 @H5R__create_attr(ptr noundef %0, i64 noundef %1, ptr noundef %2, ptr noundef %3) #0 {
  %5 = alloca ptr, align 8
  %6 = alloca i64, align 8
  %7 = alloca ptr, align 8
  %8 = alloca ptr, align 8
  %9 = alloca i64, align 8
  %10 = alloca i32, align 4
  %11 = alloca i8, align 1
  store ptr %0, ptr %5, align 8, !tbaa !9
  store i64 %1, ptr %6, align 8, !tbaa !12
  store ptr %2, ptr %7, align 8, !tbaa !24
  store ptr %3, ptr %8, align 8, !tbaa !14
  call void @llvm.lifetime.start.p0(i64 8, ptr %9) #9
  call void @llvm.lifetime.start.p0(i64 4, ptr %10) #9
  store i32 0, ptr %10, align 4, !tbaa !16
  call void @llvm.lifetime.start.p0(i64 1, ptr %11) #9
  store i8 0, ptr %11, align 1, !tbaa !3
  %12 = load i8, ptr @H5R_init_g, align 1, !tbaa !3, !range !7, !noundef !8
  %13 = trunc i8 %12 to i1
  br i1 %13, label %18, label %14

14:                                               ; preds = %4
  %15 = load i8, ptr @H5_libterm_g, align 1, !tbaa !3, !range !7, !noundef !8
  %16 = trunc i8 %15 to i1
  %17 = xor i1 %16, true
  br label %18

18:                                               ; preds = %14, %4
  %19 = phi i1 [ true, %4 ], [ %17, %14 ]
  %20 = xor i1 %19, true
  %21 = xor i1 %20, true
  %22 = zext i1 %21 to i32
  %23 = sext i32 %22 to i64
  %24 = call i64 @llvm.expect.i64(i64 %23, i64 1)
  %25 = icmp ne i64 %24, 0
  br i1 %25, label %26, label %154

26:                                               ; preds = %18
  %27 = load ptr, ptr %7, align 8, !tbaa !24
  %28 = call i64 @strlen(ptr noundef %27) #10
  %29 = icmp ugt i64 %28, 65536
  br i1 %29, label %30, label %52

30:                                               ; preds = %26
  br label %31

31:                                               ; preds = %30
  br label %32

32:                                               ; preds = %31
  br label %33

33:                                               ; preds = %32
  %34 = load i64, ptr @H5E_REFERENCE_g, align 8, !tbaa !12
  %35 = load i64, ptr @H5E_ARGS_g, align 8, !tbaa !12
  %36 = load ptr, ptr %7, align 8, !tbaa !24
  %37 = call i64 @strlen(ptr noundef %36) #10
  %38 = trunc i64 %37 to i32
  %39 = call i32 (ptr, ptr, i32, i64, i64, ptr, ...) @H5E_printf_stack(ptr noundef @.str, ptr noundef @__func__.H5R__create_attr, i32 noundef 281, i64 noundef %34, i64 noundef %35, ptr noundef @.str.4, i32 noundef %38, i32 noundef 65536)
  br label %40

40:                                               ; preds = %33
  br label %41

41:                                               ; preds = %40
  store i8 1, ptr %11, align 1, !tbaa !3
  %42 = load i8, ptr %11, align 1, !tbaa !3, !range !7, !noundef !8
  %43 = trunc i8 %42 to i1
  %44 = zext i1 %43 to i8
  store i8 %44, ptr %11, align 1, !tbaa !3
  br label %45

45:                                               ; preds = %41
  br label %46

46:                                               ; preds = %45
  br label %47

47:                                               ; preds = %46
  store i32 -1, ptr %10, align 4, !tbaa !16
  br label %141

48:                                               ; No predecessors!
  br label %49

49:                                               ; preds = %48
  br label %50

50:                                               ; preds = %49
  br label %51

51:                                               ; preds = %50
  br label %52

52:                                               ; preds = %51, %26
  %53 = load ptr, ptr %8, align 8, !tbaa !14
  %54 = getelementptr inbounds nuw %struct.H5R_ref_priv_t, ptr %53, i32 0, i32 0
  %55 = getelementptr inbounds nuw %struct.H5R_ref_priv_obj_t, ptr %54, i32 0, i32 1
  store ptr null, ptr %55, align 8, !tbaa !18
  %56 = load ptr, ptr %7, align 8, !tbaa !24
  %57 = call noalias ptr @strdup(ptr noundef %56) #9
  %58 = load ptr, ptr %8, align 8, !tbaa !14
  %59 = getelementptr inbounds nuw %struct.H5R_ref_priv_t, ptr %58, i32 0, i32 0
  %60 = getelementptr inbounds nuw %struct.H5R_ref_priv_attr_t, ptr %59, i32 0, i32 1
  store ptr %57, ptr %60, align 8, !tbaa !18
  %61 = icmp eq ptr null, %57
  br i1 %61, label %62, label %81

62:                                               ; preds = %52
  br label %63

63:                                               ; preds = %62
  br label %64

64:                                               ; preds = %63
  br label %65

65:                                               ; preds = %64
  %66 = load i64, ptr @H5E_REFERENCE_g, align 8, !tbaa !12
  %67 = load i64, ptr @H5E_CANTCOPY_g, align 8, !tbaa !12
  %68 = call i32 (ptr, ptr, i32, i64, i64, ptr, ...) @H5E_printf_stack(ptr noundef @.str, ptr noundef @__func__.H5R__create_attr, i32 noundef 286, i64 noundef %66, i64 noundef %67, ptr noundef @.str.5)
  br label %69

69:                                               ; preds = %65
  br label %70

70:                                               ; preds = %69
  store i8 1, ptr %11, align 1, !tbaa !3
  %71 = load i8, ptr %11, align 1, !tbaa !3, !range !7, !noundef !8
  %72 = trunc i8 %71 to i1
  %73 = zext i1 %72 to i8
  store i8 %73, ptr %11, align 1, !tbaa !3
  br label %74

74:                                               ; preds = %70
  br label %75

75:                                               ; preds = %74
  br label %76

76:                                               ; preds = %75
  store i32 -1, ptr %10, align 4, !tbaa !16
  br label %141

77:                                               ; No predecessors!
  br label %78

78:                                               ; preds = %77
  br label %79

79:                                               ; preds = %78
  br label %80

80:                                               ; preds = %79
  br label %81

81:                                               ; preds = %80, %52
  %82 = load ptr, ptr %8, align 8, !tbaa !14
  %83 = getelementptr inbounds nuw %struct.H5R_ref_priv_t, ptr %82, i32 0, i32 1
  store i64 -1, ptr %83, align 8, !tbaa !19
  %84 = load ptr, ptr %8, align 8, !tbaa !14
  %85 = getelementptr inbounds nuw %struct.H5R_ref_priv_t, ptr %84, i32 0, i32 3
  store i8 4, ptr %85, align 4, !tbaa !21
  %86 = load ptr, ptr %8, align 8, !tbaa !14
  %87 = load ptr, ptr %5, align 8, !tbaa !9
  %88 = load i64, ptr %6, align 8, !tbaa !12
  %89 = call i32 @H5R__set_obj_token(ptr noundef %86, ptr noundef %87, i64 noundef %88)
  %90 = icmp slt i32 %89, 0
  br i1 %90, label %91, label %110

91:                                               ; preds = %81
  br label %92

92:                                               ; preds = %91
  br label %93

93:                                               ; preds = %92
  br label %94

94:                                               ; preds = %93
  %95 = load i64, ptr @H5E_REFERENCE_g, align 8, !tbaa !12
  %96 = load i64, ptr @H5E_CANTSET_g, align 8, !tbaa !12
  %97 = call i32 (ptr, ptr, i32, i64, i64, ptr, ...) @H5E_printf_stack(ptr noundef @.str, ptr noundef @__func__.H5R__create_attr, i32 noundef 291, i64 noundef %95, i64 noundef %96, ptr noundef @.str.1)
  br label %98

98:                                               ; preds = %94
  br label %99

99:                                               ; preds = %98
  store i8 1, ptr %11, align 1, !tbaa !3
  %100 = load i8, ptr %11, align 1, !tbaa !3, !range !7, !noundef !8
  %101 = trunc i8 %100 to i1
  %102 = zext i1 %101 to i8
  store i8 %102, ptr %11, align 1, !tbaa !3
  br label %103

103:                                              ; preds = %99
  br label %104

104:                                              ; preds = %103
  br label %105

105:                                              ; preds = %104
  store i32 -1, ptr %10, align 4, !tbaa !16
  br label %141

106:                                              ; No predecessors!
  br label %107

107:                                              ; preds = %106
  br label %108

108:                                              ; preds = %107
  br label %109

109:                                              ; preds = %108
  br label %110

110:                                              ; preds = %109, %81
  %111 = load ptr, ptr %8, align 8, !tbaa !14
  %112 = call i32 @H5R__encode(ptr noundef null, ptr noundef %111, ptr noundef null, ptr noundef %9, i32 noundef 0)
  %113 = icmp slt i32 %112, 0
  br i1 %113, label %114, label %133

114:                                              ; preds = %110
  br label %115

115:                                              ; preds = %114
  br label %116

116:                                              ; preds = %115
  br label %117

117:                                              ; preds = %116
  %118 = load i64, ptr @H5E_REFERENCE_g, align 8, !tbaa !12
  %119 = load i64, ptr @H5E_CANTENCODE_g, align 8, !tbaa !12
  %120 = call i32 (ptr, ptr, i32, i64, i64, ptr, ...) @H5E_printf_stack(ptr noundef @.str, ptr noundef @__func__.H5R__create_attr, i32 noundef 295, i64 noundef %118, i64 noundef %119, ptr noundef @.str.2)
  br label %121

121:                                              ; preds = %117
  br label %122

122:                                              ; preds = %121
  store i8 1, ptr %11, align 1, !tbaa !3
  %123 = load i8, ptr %11, align 1, !tbaa !3, !range !7, !noundef !8
  %124 = trunc i8 %123 to i1
  %125 = zext i1 %124 to i8
  store i8 %125, ptr %11, align 1, !tbaa !3
  br label %126

126:                                              ; preds = %122
  br label %127

127:                                              ; preds = %126
  br label %128

128:                                              ; preds = %127
  store i32 -1, ptr %10, align 4, !tbaa !16
  br label %141

129:                                              ; No predecessors!
  br label %130

130:                                              ; preds = %129
  br label %131

131:                                              ; preds = %130
  br label %132

132:                                              ; preds = %131
  br label %133

133:                                              ; preds = %132, %110
  %134 = load i64, ptr %9, align 8, !tbaa !12
  %135 = trunc i64 %134 to i32
  %136 = load ptr, ptr %8, align 8, !tbaa !14
  %137 = getelementptr inbounds nuw %struct.H5R_ref_priv_t, ptr %136, i32 0, i32 2
  store i32 %135, ptr %137, align 8, !tbaa !22
  br label %138

138:                                              ; preds = %133
  br label %139

139:                                              ; preds = %138
  br label %140

140:                                              ; preds = %139
  br label %141

141:                                              ; preds = %140, %128, %105, %76, %47
  %142 = load i32, ptr %10, align 4, !tbaa !16
  %143 = icmp slt i32 %142, 0
  br i1 %143, label %144, label %153

144:                                              ; preds = %141
  %145 = load ptr, ptr %8, align 8, !tbaa !14
  %146 = getelementptr inbounds nuw %struct.H5R_ref_priv_t, ptr %145, i32 0, i32 0
  %147 = getelementptr inbounds nuw %struct.H5R_ref_priv_attr_t, ptr %146, i32 0, i32 1
  %148 = load ptr, ptr %147, align 8, !tbaa !18
  %149 = call ptr @H5MM_xfree(ptr noundef %148)
  %150 = load ptr, ptr %8, align 8, !tbaa !14
  %151 = getelementptr inbounds nuw %struct.H5R_ref_priv_t, ptr %150, i32 0, i32 0
  %152 = getelementptr inbounds nuw %struct.H5R_ref_priv_attr_t, ptr %151, i32 0, i32 1
  store ptr null, ptr %152, align 8, !tbaa !18
  br label %153

153:                                              ; preds = %144, %141
  br label %154

154:                                              ; preds = %153, %18
  %155 = load i32, ptr %10, align 4, !tbaa !16
  call void @llvm.lifetime.end.p0(i64 1, ptr %11) #9
  call void @llvm.lifetime.end.p0(i64 4, ptr %10) #9
  call void @llvm.lifetime.end.p0(i64 8, ptr %9) #9
  ret i32 %155
}