; Function Attrs: nounwind uwtable
define range(i32 -1, 1) i32 @H5R__create_attr(ptr noundef readonly captures(none) %0, i64 noundef %1, ptr noundef readonly captures(none) %2, ptr noundef captures(none) %3) local_unnamed_addr #1 {
  %5 = alloca i64, align 8
  call void @llvm.lifetime.start.p0(i64 8, ptr nonnull %5) #15
  %6 = load i8, ptr @H5R_init_g, align 1, !tbaa !3, !range !7, !noundef !8
  %7 = trunc nuw i8 %6 to i1
  %8 = load i8, ptr @H5_libterm_g, align 1, !range !7
  %9 = trunc nuw i8 %8 to i1
  %10 = xor i1 %9, true
  %11 = select i1 %7, i1 true, i1 %10
  br i1 %11, label %12, label %46, !prof !9

12:                                               ; preds = %4
  %13 = tail call i64 @strlen(ptr noundef nonnull dereferenceable(1) %2) #16
  %14 = icmp ugt i64 %13, 65536
  br i1 %14, label %15, label %20

15:                                               ; preds = %12
  %16 = load i64, ptr @H5E_REFERENCE_g, align 8, !tbaa !17
  %17 = load i64, ptr @H5E_ARGS_g, align 8, !tbaa !17
  %18 = trunc i64 %13 to i32
  %19 = tail call i32 (ptr, ptr, i32, i64, i64, ptr, ...) @H5E_printf_stack(ptr noundef nonnull @.str, ptr noundef nonnull @__func__.H5R__create_attr, i32 noundef 281, i64 noundef %16, i64 noundef %17, ptr noundef nonnull @.str.4, i32 noundef %18, i32 noundef 65536) #15
  br label %.critedge

20:                                               ; preds = %12
  %21 = getelementptr inbounds nuw i8, ptr %3, i64 16
  store ptr null, ptr %21, align 8, !tbaa !10
  %22 = tail call noalias ptr @strdup(ptr noundef nonnull %2) #15
  %23 = getelementptr inbounds nuw i8, ptr %3, i64 24
  store ptr %22, ptr %23, align 8, !tbaa !10
  %24 = icmp eq ptr %22, null
  br i1 %24, label %25, label %H5R__set_obj_token.exit

25:                                               ; preds = %20
  %26 = load i64, ptr @H5E_REFERENCE_g, align 8, !tbaa !17
  %27 = load i64, ptr @H5E_CANTCOPY_g, align 8, !tbaa !17
  %28 = tail call i32 (ptr, ptr, i32, i64, i64, ptr, ...) @H5E_printf_stack(ptr noundef nonnull @.str, ptr noundef nonnull @__func__.H5R__create_attr, i32 noundef 286, i64 noundef %26, i64 noundef %27, ptr noundef nonnull @.str.5) #15
  br label %.critedge

H5R__set_obj_token.exit:                          ; preds = %20
  %29 = getelementptr inbounds nuw i8, ptr %3, i64 32
  store i64 -1, ptr %29, align 8, !tbaa !11
  %30 = getelementptr inbounds nuw i8, ptr %3, i64 44
  store i8 4, ptr %30, align 4, !tbaa !15
  tail call void @llvm.memcpy.p0.p0.i64(ptr nonnull align 8 %3, ptr readonly align 1 %0, i64 %1, i1 false)
  %31 = trunc i64 %1 to i8
  %32 = getelementptr inbounds nuw i8, ptr %3, i64 45
  store i8 %31, ptr %32, align 1, !tbaa !16
  %33 = call i32 @H5R__encode(ptr noundef null, ptr noundef nonnull %3, ptr noundef null, ptr noundef nonnull %5, i32 noundef 0)
  %34 = icmp slt i32 %33, 0
  br i1 %34, label %35, label %39

35:                                               ; preds = %H5R__set_obj_token.exit
  %36 = load i64, ptr @H5E_REFERENCE_g, align 8, !tbaa !17
  %37 = load i64, ptr @H5E_CANTENCODE_g, align 8, !tbaa !17
  %38 = tail call i32 (ptr, ptr, i32, i64, i64, ptr, ...) @H5E_printf_stack(ptr noundef nonnull @.str, ptr noundef nonnull @__func__.H5R__create_attr, i32 noundef 295, i64 noundef %36, i64 noundef %37, ptr noundef nonnull @.str.2) #15
  br label %.critedge

39:                                               ; preds = %H5R__set_obj_token.exit
  %40 = load i64, ptr %5, align 8, !tbaa !17
  %41 = trunc i64 %40 to i32
  %42 = getelementptr inbounds nuw i8, ptr %3, i64 40
  store i32 %41, ptr %42, align 8, !tbaa !18
  br label %46

.critedge:                                        ; preds = %35, %25, %15
  %43 = getelementptr inbounds nuw i8, ptr %3, i64 24
  %44 = load ptr, ptr %43, align 8, !tbaa !10
  %45 = tail call ptr @H5MM_xfree(ptr noundef %44) #15
  store ptr null, ptr %43, align 8, !tbaa !10
  br label %46

46:                                               ; preds = %39, %.critedge, %4
  %.0 = phi i32 [ -1, %.critedge ], [ 0, %39 ], [ 0, %4 ]
  call void @llvm.lifetime.end.p0(i64 8, ptr nonnull %5) #15
  ret i32 %.0
}